target datalayout = "e-m:e-p270:32:32-p271:32:32-p272:64:64-i64:64-i128:128-f80:128-n8:16:32:64-S128"
target triple = "x86_64-pc-linux-gnu"

@dh_ffdhe2048_g = internal constant [1 x i8] c"\02", align 1

; Function Attrs: nounwind uwtable
define i32 @wc_DhCopyNamedKey(i32 noundef %0, ptr noundef %1, ptr noundef %2, ptr noundef %3, ptr noundef %4, ptr noundef %5, ptr noundef %6) #0 {
  %8 = alloca i32, align 4
  %9 = alloca ptr, align 8
  %10 = alloca ptr, align 8
  %11 = alloca ptr, align 8
  %12 = alloca ptr, align 8
  %13 = alloca ptr, align 8
  %14 = alloca ptr, align 8
  %15 = alloca ptr, align 8
  %16 = alloca ptr, align 8
  %17 = alloca ptr, align 8
  %18 = alloca i32, align 4
  %19 = alloca i32, align 4
  %20 = alloca i32, align 4
  store i32 %0, ptr %8, align 4, !tbaa !9
  store ptr %1, ptr %9, align 8, !tbaa !16
  store ptr %2, ptr %10, align 8, !tbaa !29
  store ptr %3, ptr %11, align 8, !tbaa !16
  store ptr %4, ptr %12, align 8, !tbaa !29
  store ptr %5, ptr %13, align 8, !tbaa !16
  store ptr %6, ptr %14, align 8, !tbaa !29
  call void @llvm.lifetime.start.p0(i64 8, ptr %15) #9
  store ptr null, ptr %15, align 8, !tbaa !16
  call void @llvm.lifetime.start.p0(i64 8, ptr %16) #9
  store ptr null, ptr %16, align 8, !tbaa !16
  call void @llvm.lifetime.start.p0(i64 8, ptr %17) #9
  store ptr null, ptr %17, align 8, !tbaa !16
  call void @llvm.lifetime.start.p0(i64 4, ptr %18) #9
  store i32 0, ptr %18, align 4, !tbaa !9
  call void @llvm.lifetime.start.p0(i64 4, ptr %19) #9
  store i32 0, ptr %19, align 4, !tbaa !9
  call void @llvm.lifetime.start.p0(i64 4, ptr %20) #9
  store i32 0, ptr %20, align 4, !tbaa !9
  %21 = load i32, ptr %8, align 4, !tbaa !9
  switch i32 %21, label %23 [
    i32 256, label %22
  ]

22:                                               ; preds = %7
  store ptr @dh_ffdhe2048_p, ptr %15, align 8, !tbaa !16
  store i32 256, ptr %18, align 4, !tbaa !9
  store ptr @dh_ffdhe2048_g, ptr %16, align 8, !tbaa !16
  store i32 1, ptr %19, align 4, !tbaa !9
  br label %24

23:                                               ; preds = %7
  br label %24

24:                                               ; preds = %23, %22
  %25 = load ptr, ptr %9, align 8, !tbaa !16
  %26 = icmp ne ptr %25, null
  br i1 %26, label %27, label %35

27:                                               ; preds = %24
  %28 = load ptr, ptr %15, align 8, !tbaa !16
  %29 = icmp ne ptr %28, null
  br i1 %29, label %30, label %35

30:                                               ; preds = %27
  %31 = load ptr, ptr %9, align 8, !tbaa !16
  %32 = load ptr, ptr %15, align 8, !tbaa !16
  %33 = load i32, ptr %18, align 4, !tbaa !9
  %34 = zext i32 %33 to i64
  call void @llvm.memcpy.p0.p0.i64(ptr align 1 %31, ptr align 1 %32, i64 %34, i1 false)
  br label %35

35:                                               ; preds = %30, %27, %24
  %36 = load ptr, ptr %10, align 8, !tbaa !29
  %37 = icmp ne ptr %36, null
  br i1 %37, label %38, label %41

38:                                               ; preds = %35
  %39 = load i32, ptr %18, align 4, !tbaa !9
  %40 = load ptr, ptr %10, align 8, !tbaa !29
  store i32 %39, ptr %40, align 4, !tbaa !9
  br label %41

41:                                               ; preds = %38, %35
  %42 = load ptr, ptr %11, align 8, !tbaa !16
  %43 = icmp ne ptr %42, null
  br i1 %43, label %44, label %52

44:                                               ; preds = %41
  %45 = load ptr, ptr %16, align 8, !tbaa !16
  %46 = icmp ne ptr %45, null
  br i1 %46, label %47, label %52

47:                                               ; preds = %44
  %48 = load ptr, ptr %11, align 8, !tbaa !16
  %49 = load ptr, ptr %16, align 8, !tbaa !16
  %50 = load i32, ptr %19, align 4, !tbaa !9
  %51 = zext i32 %50 to i64
  call void @llvm.memcpy.p0.p0.i64(ptr align 1 %48, ptr align 1 %49, i64 %51, i1 false)
  br label %52

52:                                               ; preds = %47, %44, %41
  %53 = load ptr, ptr %12, align 8, !tbaa !29
  %54 = icmp ne ptr %53, null
  br i1 %54, label %55, label %58

55:                                               ; preds = %52
  %56 = load i32, ptr %19, align 4, !tbaa !9
  %57 = load ptr, ptr %12, align 8, !tbaa !29
  store i32 %56, ptr %57, align 4, !tbaa !9
  br label %58

58:                                               ; preds = %55, %52
  %59 = load ptr, ptr %13, align 8, !tbaa !16
  %60 = icmp ne ptr %59, null
  br i1 %60, label %61, label %69

61:                                               ; preds = %58
  %62 = load ptr, ptr %17, align 8, !tbaa !16
  %63 = icmp ne ptr %62, null
  br i1 %63, label %64, label %69

64:                                               ; preds = %61
  %65 = load ptr, ptr %13, align 8, !tbaa !16
  %66 = load ptr, ptr %17, align 8, !tbaa !16
  %67 = load i32, ptr %20, align 4, !tbaa !9
  %68 = zext i32 %67 to i64
  call void @llvm.memcpy.p0.p0.i64(ptr align 1 %65, ptr align 1 %66, i64 %68, i1 false)
  br label %69

69:                                               ; preds = %64, %61, %58
  %70 = load ptr, ptr %14, align 8, !tbaa !29
  %71 = icmp ne ptr %70, null
  br i1 %71, label %72, label %75

72:                                               ; preds = %69
  %73 = load i32, ptr %20, align 4, !tbaa !9
  %74 = load ptr, ptr %14, align 8, !tbaa !29
  store i32 %73, ptr %74, align 4, !tbaa !9
  br label %75

75:                                               ; preds = %72, %69
  call void @llvm.lifetime.end.p0(i64 4, ptr %20) #9
  call void @llvm.lifetime.end.p0(i64 4, ptr %19) #9
  call void @llvm.lifetime.end.p0(i64 4, ptr %18) #9
  call void @llvm.lifetime.end.p0(i64 8, ptr %17) #9
  call void @llvm.lifetime.end.p0(i64 8, ptr %16) #9
  call void @llvm.lifetime.end.p0(i64 8, ptr %15) #9
  ret i32 0
}