; Function Attrs: mustprogress nofree norecurse nosync nounwind willreturn memory(readwrite, inaccessiblemem: none) uwtable
define noundef i32 @wc_DhCopyNamedKey(i32 noundef %0, ptr noundef writeonly captures(address_is_null) %1, ptr noundef writeonly captures(address_is_null) %2, ptr noundef writeonly captures(address_is_null) %3, ptr noundef writeonly captures(address_is_null) %4, ptr noundef readnone captures(none) %5, ptr noundef writeonly captures(address_is_null) %6) local_unnamed_addr #8 {
  %cond = icmp eq i32 %0, 256
  br i1 %cond, label %8, label %.thread

8:                                                ; preds = %7
  %.not47 = icmp eq ptr %1, null
  br i1 %.not47, label %.thread, label %9

9:                                                ; preds = %8
  tail call void @llvm.memcpy.p0.p0.i64(ptr noundef nonnull align 1 dereferenceable(256) %1, ptr noundef nonnull align 16 dereferenceable(256) @dh_ffdhe2048_p, i64 256, i1 false)
  br label %.thread

.thread:                                          ; preds = %7, %9, %8
  %.02946 = phi i32 [ 1, %9 ], [ 1, %8 ], [ 0, %7 ]
  %.03045 = phi i32 [ 256, %9 ], [ 256, %8 ], [ 0, %7 ]
  %.03144 = phi ptr [ @dh_ffdhe2048_g, %9 ], [ @dh_ffdhe2048_g, %8 ], [ null, %7 ]
  %.not = icmp eq ptr %2, null
  br i1 %.not, label %11, label %10

10:                                               ; preds = %.thread
  store i32 %.03045, ptr %2, align 4, !tbaa !21
  br label %11

11:                                               ; preds = %10, %.thread
  %12 = icmp ne ptr %3, null
  %or.cond3 = and i1 %cond, %12
  br i1 %or.cond3, label %13, label %15

13:                                               ; preds = %11
  %14 = zext nneg i32 %.02946 to i64
  tail call void @llvm.memcpy.p0.p0.i64(ptr nonnull align 1 %3, ptr align 1 %.03144, i64 %14, i1 false)
  br label %15

15:                                               ; preds = %13, %11
  %.not37 = icmp eq ptr %4, null
  br i1 %.not37, label %17, label %16

16:                                               ; preds = %15
  store i32 %.02946, ptr %4, align 4, !tbaa !21
  br label %17

17:                                               ; preds = %15, %16
  %.not38 = icmp eq ptr %6, null
  br i1 %.not38, label %19, label %18

18:                                               ; preds = %17
  store i32 0, ptr %6, align 4, !tbaa !21
  br label %19

19:                                               ; preds = %18, %17
  ret i32 0
}